target datalayout = "e-m:e-p270:32:32-p271:32:32-p272:64:64-i64:64-i128:128-f80:128-n8:16:32:64-S128"
target triple = "x86_64-pc-linux-gnu"

%struct.xcgroup_ns_t = type { ptr, ptr, ptr, ptr }
%struct.xcgroup_t = type { ptr, ptr, ptr, i32, i32, i32 }
%struct.slurm_conf_t = type { i64, ptr, i16, ptr, ptr, ptr, ptr, ptr, i16, ptr, ptr, ptr, ptr, ptr, ptr, ptr, i16, ptr, ptr, ptr, ptr, i16, ptr, ptr, ptr, i64, ptr, ptr, ptr, ptr, i16, ptr, ptr, i16, i32, ptr, i32, ptr, i32, i32, ptr, ptr, i64, i64, ptr, i16, i16, ptr, i32, i32, ptr, i32, ptr, i32, i16, i16, i16, ptr, i16, i16, ptr, ptr, i32, i16, i16, ptr, i32, i16, ptr, ptr, ptr, ptr, i16, ptr, ptr, ptr, ptr, i32, ptr, ptr, ptr, ptr, i16, i16, ptr, i32, i32, i32, i16, i16, ptr, ptr, i16, ptr, ptr, i32, i32, i32, i32, i32, i64, i32, i32, i16, ptr, ptr, i32, ptr, ptr, ptr, i16, i32, ptr, ptr, i16, ptr, ptr, i32, i16, ptr, ptr, ptr, ptr, i32, i32, i16, i16, i32, ptr, i16, ptr, i32, i32, i32, i32, i32, i32, ptr, i16, ptr, ptr, i32, i16, ptr, i32, i16, i16, ptr, ptr, ptr, i16, ptr, ptr, ptr, ptr, i16, i16, ptr, i16, ptr, i16, ptr, i16, ptr, i16, ptr, ptr, ptr, ptr, i16, ptr, ptr, ptr, i32, ptr, i32, ptr, ptr, i16, ptr, ptr, i32, i16, ptr, ptr, i16, i16, ptr, i16, ptr, ptr, ptr, i32, ptr, i16, i16, ptr, ptr, ptr, ptr, ptr, ptr, ptr, ptr, i16, i32, i16, ptr, ptr, ptr, ptr, i32, ptr, ptr, ptr, i16, ptr, ptr, ptr, i16, ptr, i16, ptr, i16, i16, ptr }

@plugin_type = dso_local constant [10 x i8] c"cgroup/v2\00", align 1
@int_cg_ns = internal global %struct.xcgroup_ns_t zeroinitializer, align 8
@invoc_id = internal global ptr null, align 8
@stepd_scope_path = internal global ptr null, align 8
@int_cg = internal global [9 x %struct.xcgroup_t] zeroinitializer, align 16
@.str.4 = private unnamed_addr constant [1 x i8] zeroinitializer, align 1
@slurm_conf = external global %struct.slurm_conf_t, align 8
@.str.139 = private unnamed_addr constant [27 x i8] c"%s: %s: CGROUP: Created %s\00", align 1
@.str.164 = private unnamed_addr constant [10 x i8] c"%s/slurmd\00", align 1
@.str.165 = private unnamed_addr constant [29 x i8] c"unable to create root cgroup\00", align 1
@.str.166 = private unnamed_addr constant [39 x i8] c"Unable to instantiate slurmd %s cgroup\00", align 1
@__func__._migrate_to_stepd_scope = private unnamed_addr constant [24 x i8] c"_migrate_to_stepd_scope\00", align 1
@.str.167 = private unnamed_addr constant [50 x i8] c"Cannot enable subtree_control at the top level %s\00", align 1
@.str.168 = private unnamed_addr constant [45 x i8] c"Unable to attach slurmd pid %d to %s cgroup.\00", align 1

; Function Attrs: nounwind uwtable
define internal i32 @_migrate_to_stepd_scope() #0 {
  %1 = alloca i32, align 4
  %2 = alloca ptr, align 8
  %3 = alloca i32, align 4
  %4 = alloca i32, align 4
  call void @llvm.lifetime.start.p0(i64 8, ptr %2) #10
  store ptr null, ptr %2, align 8
  call void @llvm.lifetime.start.p0(i64 4, ptr %3) #10
  %5 = call i32 @getpid() #10
  store i32 %5, ptr %3, align 4
  %6 = load ptr, ptr @int_cg_ns, align 8
  call void @bit_clear_all(ptr noundef %6)
  call void @common_cgroup_destroy(ptr noundef @int_cg)
  call void @common_cgroup_ns_destroy(ptr noundef @int_cg_ns)
  %7 = load ptr, ptr @stepd_scope_path, align 8
  call void (ptr, ptr, ...) @_xstrfmtcat(ptr noundef %2, ptr noundef @.str.164, ptr noundef %7)
  %8 = load ptr, ptr %2, align 8
  store ptr %8, ptr getelementptr inbounds nuw (%struct.xcgroup_ns_t, ptr @int_cg_ns, i32 0, i32 1), align 8
  %9 = call i32 @common_cgroup_create(ptr noundef @int_cg_ns, ptr noundef @int_cg, ptr noundef @.str.4, i32 noundef 0, i32 noundef 0)
  %10 = icmp ne i32 %9, 0
  br i1 %10, label %11, label %13

11:                                               ; preds = %0
  %12 = call i32 (ptr, ...) @error(ptr noundef @.str.165)
  store i32 -1, ptr %1, align 4
  store i32 1, ptr %4, align 4
  br label %58

13:                                               ; preds = %0
  %14 = call i32 @common_cgroup_instantiate(ptr noundef @int_cg)
  %15 = icmp ne i32 %14, 0
  br i1 %15, label %16, label %19

16:                                               ; preds = %13
  %17 = load ptr, ptr %2, align 8
  %18 = call i32 (ptr, ...) @error(ptr noundef @.str.166, ptr noundef %17)
  store i32 -1, ptr %1, align 4
  store i32 1, ptr %4, align 4
  br label %58

19:                                               ; preds = %13
  br label %20

20:                                               ; preds = %19
  %21 = load i64, ptr getelementptr inbounds nuw (%struct.slurm_conf_t, ptr @slurm_conf, i32 0, i32 42), align 8
  %22 = and i64 %21, 36028797018963968
  %23 = icmp ne i64 %22, 0
  br i1 %23, label %24, label %33

24:                                               ; preds = %20
  br label %25

25:                                               ; preds = %24
  %26 = call i32 @get_log_level()
  %27 = icmp sge i32 %26, 4
  br i1 %27, label %28, label %30

28:                                               ; preds = %25
  %29 = load ptr, ptr %2, align 8
  call void (i32, ptr, ...) @log_var(i32 noundef 4, ptr noundef @.str.139, ptr noundef @plugin_type, ptr noundef @__func__._migrate_to_stepd_scope, ptr noundef %29)
  br label %30

30:                                               ; preds = %28, %25
  br label %31

31:                                               ; preds = %30
  br label %32

32:                                               ; preds = %31
  br label %33

33:                                               ; preds = %32, %20
  br label %34

34:                                               ; preds = %33
  br label %35

35:                                               ; preds = %34
  store ptr @.str.4, ptr @invoc_id, align 8
  %36 = load ptr, ptr @stepd_scope_path, align 8
  %37 = load ptr, ptr @int_cg_ns, align 8
  %38 = call i32 @_get_controllers(ptr noundef %36, ptr noundef %37)
  %39 = icmp ne i32 %38, 0
  br i1 %39, label %40, label %41

40:                                               ; preds = %35
  store i32 -1, ptr %1, align 4
  store i32 1, ptr %4, align 4
  br label %58

41:                                               ; preds = %35
  %42 = load ptr, ptr @stepd_scope_path, align 8
  %43 = load ptr, ptr @int_cg_ns, align 8
  %44 = call i32 @_enable_subtree_control(ptr noundef %42, ptr noundef %43)
  %45 = icmp ne i32 %44, 0
  br i1 %45, label %46, label %49

46:                                               ; preds = %41
  %47 = load ptr, ptr getelementptr inbounds nuw (%struct.xcgroup_ns_t, ptr @int_cg_ns, i32 0, i32 1), align 8
  %48 = call i32 (ptr, ...) @error(ptr noundef @.str.167, ptr noundef %47)
  store i32 -1, ptr %1, align 4
  store i32 1, ptr %4, align 4
  br label %58

49:                                               ; preds = %41
  %50 = load i32, ptr %3, align 4
  %51 = call i32 @common_cgroup_move_process(ptr noundef @int_cg, i32 noundef %50)
  %52 = icmp ne i32 %51, 0
  br i1 %52, label %53, label %57

53:                                               ; preds = %49
  %54 = load i32, ptr %3, align 4
  %55 = load ptr, ptr %2, align 8
  %56 = call i32 (ptr, ...) @error(ptr noundef @.str.168, i32 noundef %54, ptr noundef %55)
  store i32 -1, ptr %1, align 4
  store i32 1, ptr %4, align 4
  br label %58

57:                                               ; preds = %49
  store i32 0, ptr %1, align 4
  store i32 1, ptr %4, align 4
  br label %58

58:                                               ; preds = %57, %53, %46, %40, %16, %11
  call void @llvm.lifetime.end.p0(i64 4, ptr %3) #10
  call void @llvm.lifetime.end.p0(i64 8, ptr %2) #10
  %59 = load i32, ptr %1, align 4
  ret i32 %59
}