; Function Attrs: nounwind uwtable
define internal fastcc range(i32 -1, 1) i32 @_migrate_to_stepd_scope() unnamed_addr #0 {
  %1 = alloca ptr, align 8
  call void @llvm.lifetime.start.p0(i64 8, ptr nonnull %1) #17
  store ptr null, ptr %1, align 8
  %2 = tail call i32 @getpid() #17
  %3 = load ptr, ptr @int_cg_ns, align 8
  tail call void @bit_clear_all(ptr noundef %3) #17
  tail call void @common_cgroup_destroy(ptr noundef nonnull @int_cg) #17
  tail call void @common_cgroup_ns_destroy(ptr noundef nonnull @int_cg_ns) #17
  %4 = load ptr, ptr @stepd_scope_path, align 8
  call void (ptr, ptr, ...) @_xstrfmtcat(ptr noundef nonnull %1, ptr noundef nonnull @.str.164, ptr noundef %4) #17
  %5 = load ptr, ptr %1, align 8
  store ptr %5, ptr getelementptr inbounds nuw (i8, ptr @int_cg_ns, i64 8), align 8
  %6 = call i32 @common_cgroup_create(ptr noundef nonnull @int_cg_ns, ptr noundef nonnull @int_cg, ptr noundef nonnull @.str.4, i32 noundef 0, i32 noundef 0) #17
  %.not = icmp eq i32 %6, 0
  br i1 %.not, label %9, label %7

7:                                                ; preds = %0
  %8 = call i32 (ptr, ...) @error(ptr noundef nonnull @.str.165) #17
  br label %38

9:                                                ; preds = %0
  %10 = call i32 @common_cgroup_instantiate(ptr noundef nonnull @int_cg) #17
  %.not3 = icmp eq i32 %10, 0
  br i1 %.not3, label %14, label %11

11:                                               ; preds = %9
  %12 = load ptr, ptr %1, align 8
  %13 = call i32 (ptr, ...) @error(ptr noundef nonnull @.str.166, ptr noundef %12) #17
  br label %38

14:                                               ; preds = %9
  %15 = load i64, ptr getelementptr inbounds nuw (i8, ptr @slurm_conf, i64 320), align 8
  %16 = and i64 %15, 36028797018963968
  %.not4 = icmp eq i64 %16, 0
  br i1 %.not4, label %22, label %17

17:                                               ; preds = %14
  %18 = call i32 @get_log_level() #17
  %19 = icmp sgt i32 %18, 3
  br i1 %19, label %20, label %22

20:                                               ; preds = %17
  %21 = load ptr, ptr %1, align 8
  call void (i32, ptr, ...) @log_var(i32 noundef 4, ptr noundef nonnull @.str.139, ptr noundef nonnull @plugin_type, ptr noundef nonnull @__func__._migrate_to_stepd_scope, ptr noundef %21) #17
  br label %22

22:                                               ; preds = %17, %20, %14
  store ptr @.str.4, ptr @invoc_id, align 8
  %23 = load ptr, ptr @stepd_scope_path, align 8
  %24 = load ptr, ptr @int_cg_ns, align 8
  %25 = call fastcc i32 @_get_controllers(ptr noundef %23, ptr noundef %24)
  %.not5 = icmp eq i32 %25, 0
  br i1 %.not5, label %26, label %38

26:                                               ; preds = %22
  %27 = load ptr, ptr @stepd_scope_path, align 8
  %28 = load ptr, ptr @int_cg_ns, align 8
  %29 = call fastcc i32 @_enable_subtree_control(ptr noundef %27, ptr noundef %28)
  %.not6 = icmp eq i32 %29, 0
  br i1 %.not6, label %33, label %30

30:                                               ; preds = %26
  %31 = load ptr, ptr getelementptr inbounds nuw (i8, ptr @int_cg_ns, i64 8), align 8
  %32 = call i32 (ptr, ...) @error(ptr noundef nonnull @.str.167, ptr noundef %31) #17
  br label %38

33:                                               ; preds = %26
  %34 = call i32 @common_cgroup_move_process(ptr noundef nonnull @int_cg, i32 noundef %2) #17
  %.not7 = icmp eq i32 %34, 0
  br i1 %.not7, label %38, label %35

35:                                               ; preds = %33
  %36 = load ptr, ptr %1, align 8
  %37 = call i32 (ptr, ...) @error(ptr noundef nonnull @.str.168, i32 noundef %2, ptr noundef %36) #17
  br label %38

38:                                               ; preds = %33, %22, %35, %30, %11, %7
  %.0 = phi i32 [ -1, %7 ], [ -1, %11 ], [ -1, %30 ], [ -1, %35 ], [ -1, %22 ], [ 0, %33 ]
  call void @llvm.lifetime.end.p0(i64 8, ptr nonnull %1) #17
  ret i32 %.0
}